target datalayout = "e-m:e-p270:32:32-p271:32:32-p272:64:64-i64:64-f80:128-n8:16:32:64-S128"
target triple = "x86_64-pc-linux-gnu"

%struct._IO_FILE = type { i32, i8*, i8*, i8*, i8*, i8*, i8*, i8*, i8*, i8*, i8*, i8*, %struct._IO_marker*, %struct._IO_FILE*, i32, i32, i64, i16, i8, [1 x i8], i8*, i64, %struct._IO_codecvt*, %struct._IO_wide_data*, %struct._IO_FILE*, i8*, i64, i32, [20 x i8] }
%struct._IO_marker = type opaque
%struct._IO_codecvt = type opaque
%struct._IO_wide_data = type opaque

@.str = private unnamed_addr constant [7 x i8] c"in.txt\00", align 1
@.str.1 = private unnamed_addr constant [2 x i8] c"r\00", align 1
@stdin = external dso_local global %struct._IO_FILE*, align 8
@.str.2 = private unnamed_addr constant [8 x i8] c"out.txt\00", align 1
@.str.3 = private unnamed_addr constant [2 x i8] c"w\00", align 1
@stdout = external dso_local global %struct._IO_FILE*, align 8
@.str.4 = private unnamed_addr constant [3 x i8] c"%d\00", align 1
@ju = common dso_local global [100 x [100 x i32]] zeroinitializer, align 16
@data = common dso_local global [100 x i32] zeroinitializer, align 16
@weight = common dso_local global [100 x i32] zeroinitializer, align 16
@.str.5 = private unnamed_addr constant [4 x i8] c"%d\0A\00", align 1

; Function Attrs: noinline nounwind uwtable
define dso_local i32 @main(i32 %0, i8** %1) #0 {
  %3 = alloca i32, align 4
  %4 = alloca i32, align 4
  %5 = alloca i8**, align 8
  %6 = alloca i32, align 4
  %7 = alloca i32, align 4
  %8 = alloca i32, align 4
  %9 = alloca i32, align 4
  store i32 0, i32* %3, align 4
  store i32 %0, i32* %4, align 4
  store i8** %1, i8*** %5, align 8
  store i32 0, i32* %6, align 4
  store i32 0, i32* %7, align 4
  store i32 0, i32* %8, align 4
  store i32 0, i32* %9, align 4
  %10 = load %struct._IO_FILE*, %struct._IO_FILE** @stdin, align 8
  %11 = call %struct._IO_FILE* @freopen(i8* getelementptr inbounds ([7 x i8], [7 x i8]* @.str, i64 0, i64 0), i8* getelementptr inbounds ([2 x i8], [2 x i8]* @.str.1, i64 0, i64 0), %struct._IO_FILE* %10)
  %12 = load %struct._IO_FILE*, %struct._IO_FILE** @stdout, align 8
  %13 = call %struct._IO_FILE* @freopen(i8* getelementptr inbounds ([8 x i8], [8 x i8]* @.str.2, i64 0, i64 0), i8* getelementptr inbounds ([2 x i8], [2 x i8]* @.str.3, i64 0, i64 0), %struct._IO_FILE* %12)
  %14 = call i32 (i8*, ...) @__isoc99_scanf(i8* getelementptr inbounds ([3 x i8], [3 x i8]* @.str.4, i64 0, i64 0), i32* %6)
  call void @llvm.memset.p0i8.i64(i8* align 16 bitcast ([100 x [100 x i32]]* @ju to i8*), i8 0, i64 40000, i1 false)
  store i32 0, i32* %7, align 4
  br label %15

15:                                               ; preds = %27, %2
  %16 = load i32, i32* %7, align 4
  %17 = load i32, i32* %6, align 4
  %18 = icmp slt i32 %16, %17
  br i1 %18, label %19, label %30

19:                                               ; preds = %15
  %20 = load i32, i32* %7, align 4
  %21 = sext i32 %20 to i64
  %22 = getelementptr inbounds [100 x i32], [100 x i32]* @data, i64 0, i64 %21
  %23 = call i32 (i8*, ...) @__isoc99_scanf(i8* getelementptr inbounds ([3 x i8], [3 x i8]* @.str.4, i64 0, i64 0), i32* %22)
  %24 = load i32, i32* %7, align 4
  %25 = sext i32 %24 to i64
  %26 = getelementptr inbounds [100 x i32], [100 x i32]* @weight, i64 0, i64 %25
  store i32 1, i32* %26, align 4
  br label %27

27:                                               ; preds = %19
  %28 = load i32, i32* %7, align 4
  %29 = add nsw i32 %28, 1
  store i32 %29, i32* %7, align 4
  br label %15

30:                                               ; preds = %15
  store i32 0, i32* %7, align 4
  br label %31

31:                                               ; preds = %65, %30
  %32 = load i32, i32* %7, align 4
  %33 = load i32, i32* %6, align 4
  %34 = sub nsw i32 %33, 1
  %35 = icmp slt i32 %32, %34
  br i1 %35, label %36, label %68

36:                                               ; preds = %31
  %37 = load i32, i32* %7, align 4
  %38 = add nsw i32 %37, 1
  store i32 %38, i32* %8, align 4
  br label %39

39:                                               ; preds = %61, %36
  %40 = load i32, i32* %8, align 4
  %41 = load i32, i32* %6, align 4
  %42 = icmp slt i32 %40, %41
  br i1 %42, label %43, label %64

43:                                               ; preds = %39
  %44 = load i32, i32* %7, align 4
  %45 = sext i32 %44 to i64
  %46 = getelementptr inbounds [100 x i32], [100 x i32]* @data, i64 0, i64 %45
  %47 = load i32, i32* %46, align 4
  %48 = load i32, i32* %8, align 4
  %49 = sext i32 %48 to i64
  %50 = getelementptr inbounds [100 x i32], [100 x i32]* @data, i64 0, i64 %49
  %51 = load i32, i32* %50, align 4
  %52 = icmp sge i32 %47, %51
  br i1 %52, label %53, label %60

53:                                               ; preds = %43
  %54 = load i32, i32* %7, align 4
  %55 = sext i32 %54 to i64
  %56 = getelementptr inbounds [100 x [100 x i32]], [100 x [100 x i32]]* @ju, i64 0, i64 %55
  %57 = load i32, i32* %8, align 4
  %58 = sext i32 %57 to i64
  %59 = getelementptr inbounds [100 x i32], [100 x i32]* %56, i64 0, i64 %58
  store i32 1, i32* %59, align 4
  br label %60

60:                                               ; preds = %53, %43
  br label %61

61:                                               ; preds = %60
  %62 = load i32, i32* %8, align 4
  %63 = add nsw i32 %62, 1
  store i32 %63, i32* %8, align 4
  br label %39

64:                                               ; preds = %39
  br label %65

65:                                               ; preds = %64
  %66 = load i32, i32* %7, align 4
  %67 = add nsw i32 %66, 1
  store i32 %67, i32* %7, align 4
  br label %31

68:                                               ; preds = %31
  %69 = load i32, i32* %6, align 4
  %70 = sub nsw i32 %69, 2
  store i32 %70, i32* %7, align 4
  br label %71

71:                                               ; preds = %116, %68
  %72 = load i32, i32* %7, align 4
  %73 = icmp sge i32 %72, 0
  br i1 %73, label %74, label %119

74:                                               ; preds = %71
  %75 = load i32, i32* %7, align 4
  %76 = add nsw i32 %75, 1
  store i32 %76, i32* %8, align 4
  br label %77

77:                                               ; preds = %112, %74
  %78 = load i32, i32* %8, align 4
  %79 = load i32, i32* %6, align 4
  %80 = icmp slt i32 %78, %79
  br i1 %80, label %81, label %115

81:                                               ; preds = %77
  %82 = load i32, i32* %7, align 4
  %83 = sext i32 %82 to i64
  %84 = getelementptr inbounds [100 x [100 x i32]], [100 x [100 x i32]]* @ju, i64 0, i64 %83
  %85 = load i32, i32* %8, align 4
  %86 = sext i32 %85 to i64
  %87 = getelementptr inbounds [100 x i32], [100 x i32]* %84, i64 0, i64 %86
  %88 = load i32, i32* %87, align 4
  %89 = icmp ne i32 %88, 0
  br i1 %89, label %90, label %111

90:                                               ; preds = %81
  %91 = load i32, i32* %7, align 4
  %92 = sext i32 %91 to i64
  %93 = getelementptr inbounds [100 x i32], [100 x i32]* @weight, i64 0, i64 %92
  %94 = load i32, i32* %93, align 4
  %95 = load i32, i32* %8, align 4
  %96 = sext i32 %95 to i64
  %97 = getelementptr inbounds [100 x i32], [100 x i32]* @weight, i64 0, i64 %96
  %98 = load i32, i32* %97, align 4
  %99 = add nsw i32 %98, 1
  %100 = icmp slt i32 %94, %99
  br i1 %100, label %101, label %110

101:                                              ; preds = %90
  %102 = load i32, i32* %8, align 4
  %103 = sext i32 %102 to i64
  %104 = getelementptr inbounds [100 x i32], [100 x i32]* @weight, i64 0, i64 %103
  %105 = load i32, i32* %104, align 4
  %106 = add nsw i32 %105, 1
  %107 = load i32, i32* %7, align 4
  %108 = sext i32 %107 to i64
  %109 = getelementptr inbounds [100 x i32], [100 x i32]* @weight, i64 0, i64 %108
  store i32 %106, i32* %109, align 4
  br label %110

110:                                              ; preds = %101, %90
  br label %111

111:                                              ; preds = %110, %81
  br label %112

112:                                              ; preds = %111
  %113 = load i32, i32* %8, align 4
  %114 = add nsw i32 %113, 1
  store i32 %114, i32* %8, align 4
  br label %77

115:                                              ; preds = %77
  br label %116

116:                                              ; preds = %115
  %117 = load i32, i32* %7, align 4
  %118 = add nsw i32 %117, -1
  store i32 %118, i32* %7, align 4
  br label %71

119:                                              ; preds = %71
  store i32 0, i32* %9, align 4
  store i32 0, i32* %7, align 4
  br label %120

120:                                              ; preds = %137, %119
  %121 = load i32, i32* %7, align 4
  %122 = load i32, i32* %6, align 4
  %123 = icmp slt i32 %121, %122
  br i1 %123, label %124, label %140

124:                                              ; preds = %120
  %125 = load i32, i32* %9, align 4
  %126 = load i32, i32* %7, align 4
  %127 = sext i32 %126 to i64
  %128 = getelementptr inbounds [100 x i32], [100 x i32]* @weight, i64 0, i64 %127
  %129 = load i32, i32* %128, align 4
  %130 = icmp slt i32 %125, %129
  br i1 %130, label %131, label %136

131:                                              ; preds = %124
  %132 = load i32, i32* %7, align 4
  %133 = sext i32 %132 to i64
  %134 = getelementptr inbounds [100 x i32], [100 x i32]* @weight, i64 0, i64 %133
  %135 = load i32, i32* %134, align 4
  store i32 %135, i32* %9, align 4
  br label %136

136:                                              ; preds = %131, %124
  br label %137

137:                                              ; preds = %136
  %138 = load i32, i32* %7, align 4
  %139 = add nsw i32 %138, 1
  store i32 %139, i32* %7, align 4
  br label %120

140:                                              ; preds = %120
  %141 = load i32, i32* %9, align 4
  %142 = call i32 (i8*, ...) @printf(i8* getelementptr inbounds ([4 x i8], [4 x i8]* @.str.5, i64 0, i64 0), i32 %141)
  ret i32 0
}